; ModuleID = '51/470.c'
source_filename = "51/470.c"
target datalayout = "e-m:e-p270:32:32-p271:32:32-p272:64:64-i64:64-f80:128-n8:16:32:64-S128"
target triple = "x86_64-pc-linux-gnu"

@.str = private unnamed_addr constant [3 x i8] c"%d\00", align 1
@.str.1 = private unnamed_addr constant [3 x i8] c"%s\00", align 1
@.str.2 = private unnamed_addr constant [4 x i8] c"NO\0A\00", align 1
@.str.3 = private unnamed_addr constant [4 x i8] c"%d\0A\00", align 1
@.str.4 = private unnamed_addr constant [4 x i8] c"%s\0A\00", align 1

; Function Attrs: noinline nounwind uwtable
define dso_local i32 @main() #0 {
  %1 = alloca i32, align 4
  %2 = alloca i32, align 4
  %3 = alloca i32, align 4
  %4 = alloca i32, align 4
  %5 = alloca i32, align 4
  %6 = alloca [500 x i32], align 16
  %7 = alloca i32, align 4
  %8 = alloca i32, align 4
  %9 = alloca i32, align 4
  %10 = alloca [502 x i8], align 16
  %11 = alloca [500 x [10 x i8]], align 16
  %12 = alloca [10 x i8], align 1
  store i32 0, i32* %1, align 4
  %13 = bitcast [500 x i32]* %6 to i8*
  call void @llvm.memset.p0i8.i64(i8* align 16 %13, i8 0, i64 2000, i1 false)
  %14 = call i32 (i8*, ...) @__isoc99_scanf(i8* getelementptr inbounds ([3 x i8], [3 x i8]* @.str, i64 0, i64 0), i32* %2)
  %15 = getelementptr inbounds [502 x i8], [502 x i8]* %10, i64 0, i64 0
  %16 = call i32 (i8*, ...) @__isoc99_scanf(i8* getelementptr inbounds ([3 x i8], [3 x i8]* @.str.1, i64 0, i64 0), i8* %15)
  %17 = getelementptr inbounds [502 x i8], [502 x i8]* %10, i64 0, i64 0
  %18 = call i64 @strlen(i8* %17) #5
  %19 = trunc i64 %18 to i32
  store i32 %19, i32* %8, align 4
  store i32 0, i32* %3, align 4
  br label %20

20:                                               ; preds = %33, %0
  %21 = load i32, i32* %3, align 4
  %22 = load i32, i32* %2, align 4
  %23 = icmp slt i32 %21, %22
  br i1 %23, label %24, label %36

24:                                               ; preds = %20
  %25 = load i32, i32* %3, align 4
  %26 = sext i32 %25 to i64
  %27 = getelementptr inbounds [502 x i8], [502 x i8]* %10, i64 0, i64 %26
  %28 = load i8, i8* %27, align 1
  %29 = getelementptr inbounds [500 x [10 x i8]], [500 x [10 x i8]]* %11, i64 0, i64 1
  %30 = load i32, i32* %3, align 4
  %31 = sext i32 %30 to i64
  %32 = getelementptr inbounds [10 x i8], [10 x i8]* %29, i64 0, i64 %31
  store i8 %28, i8* %32, align 1
  br label %33

33:                                               ; preds = %24
  %34 = load i32, i32* %3, align 4
  %35 = add nsw i32 %34, 1
  store i32 %35, i32* %3, align 4
  br label %20

36:                                               ; preds = %20
  %37 = getelementptr inbounds [500 x [10 x i8]], [500 x [10 x i8]]* %11, i64 0, i64 1
  %38 = load i32, i32* %2, align 4
  %39 = sext i32 %38 to i64
  %40 = getelementptr inbounds [10 x i8], [10 x i8]* %37, i64 0, i64 %39
  store i8 0, i8* %40, align 1
  %41 = getelementptr inbounds [500 x i32], [500 x i32]* %6, i64 0, i64 1
  store i32 1, i32* %41, align 4
  store i32 1, i32* %4, align 4
  store i32 1, i32* %3, align 4
  br label %42

42:                                               ; preds = %113, %36
  %43 = load i32, i32* %3, align 4
  %44 = load i32, i32* %8, align 4
  %45 = load i32, i32* %2, align 4
  %46 = sub nsw i32 %44, %45
  %47 = add nsw i32 %46, 1
  %48 = icmp slt i32 %43, %47
  br i1 %48, label %49, label %116

49:                                               ; preds = %42
  store i32 0, i32* %5, align 4
  br label %50

50:                                               ; preds = %64, %49
  %51 = load i32, i32* %5, align 4
  %52 = load i32, i32* %2, align 4
  %53 = icmp slt i32 %51, %52
  br i1 %53, label %54, label %67

54:                                               ; preds = %50
  %55 = load i32, i32* %3, align 4
  %56 = load i32, i32* %5, align 4
  %57 = add nsw i32 %55, %56
  %58 = sext i32 %57 to i64
  %59 = getelementptr inbounds [502 x i8], [502 x i8]* %10, i64 0, i64 %58
  %60 = load i8, i8* %59, align 1
  %61 = load i32, i32* %5, align 4
  %62 = sext i32 %61 to i64
  %63 = getelementptr inbounds [10 x i8], [10 x i8]* %12, i64 0, i64 %62
  store i8 %60, i8* %63, align 1
  br label %64

64:                                               ; preds = %54
  %65 = load i32, i32* %5, align 4
  %66 = add nsw i32 %65, 1
  store i32 %66, i32* %5, align 4
  br label %50

67:                                               ; preds = %50
  %68 = load i32, i32* %2, align 4
  %69 = sext i32 %68 to i64
  %70 = getelementptr inbounds [10 x i8], [10 x i8]* %12, i64 0, i64 %69
  store i8 0, i8* %70, align 1
  store i32 1, i32* %9, align 4
  br label %71

71:                                               ; preds = %86, %67
  %72 = load i32, i32* %9, align 4
  %73 = load i32, i32* %4, align 4
  %74 = add nsw i32 %73, 1
  %75 = icmp slt i32 %72, %74
  br i1 %75, label %76, label %89

76:                                               ; preds = %71
  %77 = getelementptr inbounds [10 x i8], [10 x i8]* %12, i64 0, i64 0
  %78 = load i32, i32* %9, align 4
  %79 = sext i32 %78 to i64
  %80 = getelementptr inbounds [500 x [10 x i8]], [500 x [10 x i8]]* %11, i64 0, i64 %79
  %81 = getelementptr inbounds [10 x i8], [10 x i8]* %80, i64 0, i64 0
  %82 = call i32 @strcmp(i8* %77, i8* %81) #5
  %83 = icmp eq i32 %82, 0
  br i1 %83, label %84, label %85

84:                                               ; preds = %76
  br label %89

85:                                               ; preds = %76
  br label %86

86:                                               ; preds = %85
  %87 = load i32, i32* %9, align 4
  %88 = add nsw i32 %87, 1
  store i32 %88, i32* %9, align 4
  br label %71

89:                                               ; preds = %84, %71
  %90 = load i32, i32* %9, align 4
  %91 = load i32, i32* %4, align 4
  %92 = add nsw i32 %91, 1
  %93 = icmp eq i32 %90, %92
  br i1 %93, label %94, label %106

94:                                               ; preds = %89
  %95 = load i32, i32* %4, align 4
  %96 = add nsw i32 %95, 1
  store i32 %96, i32* %4, align 4
  %97 = load i32, i32* %4, align 4
  %98 = sext i32 %97 to i64
  %99 = getelementptr inbounds [500 x [10 x i8]], [500 x [10 x i8]]* %11, i64 0, i64 %98
  %100 = getelementptr inbounds [10 x i8], [10 x i8]* %99, i64 0, i64 0
  %101 = getelementptr inbounds [10 x i8], [10 x i8]* %12, i64 0, i64 0
  %102 = call i8* @strcpy(i8* %100, i8* %101) #6
  %103 = load i32, i32* %4, align 4
  %104 = sext i32 %103 to i64
  %105 = getelementptr inbounds [500 x i32], [500 x i32]* %6, i64 0, i64 %104
  store i32 1, i32* %105, align 4
  br label %112

106:                                              ; preds = %89
  %107 = load i32, i32* %9, align 4
  %108 = sext i32 %107 to i64
  %109 = getelementptr inbounds [500 x i32], [500 x i32]* %6, i64 0, i64 %108
  %110 = load i32, i32* %109, align 4
  %111 = add nsw i32 %110, 1
  store i32 %111, i32* %109, align 4
  br label %112

112:                                              ; preds = %106, %94
  br label %113

113:                                              ; preds = %112
  %114 = load i32, i32* %3, align 4
  %115 = add nsw i32 %114, 1
  store i32 %115, i32* %3, align 4
  br label %42

116:                                              ; preds = %42
  store i32 1, i32* %7, align 4
  store i32 1, i32* %3, align 4
  br label %117

117:                                              ; preds = %133, %116
  %118 = load i32, i32* %3, align 4
  %119 = icmp slt i32 %118, 500
  br i1 %119, label %120, label %136

120:                                              ; preds = %117
  %121 = load i32, i32* %7, align 4
  %122 = load i32, i32* %3, align 4
  %123 = sext i32 %122 to i64
  %124 = getelementptr inbounds [500 x i32], [500 x i32]* %6, i64 0, i64 %123
  %125 = load i32, i32* %124, align 4
  %126 = icmp slt i32 %121, %125
  br i1 %126, label %127, label %132

127:                                              ; preds = %120
  %128 = load i32, i32* %3, align 4
  %129 = sext i32 %128 to i64
  %130 = getelementptr inbounds [500 x i32], [500 x i32]* %6, i64 0, i64 %129
  %131 = load i32, i32* %130, align 4
  store i32 %131, i32* %7, align 4
  br label %132

132:                                              ; preds = %127, %120
  br label %133

133:                                              ; preds = %132
  %134 = load i32, i32* %3, align 4
  %135 = add nsw i32 %134, 1
  store i32 %135, i32* %3, align 4
  br label %117

136:                                              ; preds = %117
  %137 = load i32, i32* %7, align 4
  %138 = icmp eq i32 %137, 1
  br i1 %138, label %139, label %141

139:                                              ; preds = %136
  %140 = call i32 (i8*, ...) @printf(i8* getelementptr inbounds ([4 x i8], [4 x i8]* @.str.2, i64 0, i64 0))
  store i32 0, i32* %1, align 4
  br label %165

141:                                              ; preds = %136
  %142 = load i32, i32* %7, align 4
  %143 = call i32 (i8*, ...) @printf(i8* getelementptr inbounds ([4 x i8], [4 x i8]* @.str.3, i64 0, i64 0), i32 %142)
  store i32 1, i32* %3, align 4
  br label %144

144:                                              ; preds = %161, %141
  %145 = load i32, i32* %3, align 4
  %146 = icmp slt i32 %145, 500
  br i1 %146, label %147, label %164

147:                                              ; preds = %144
  %148 = load i32, i32* %3, align 4
  %149 = sext i32 %148 to i64
  %150 = getelementptr inbounds [500 x i32], [500 x i32]* %6, i64 0, i64 %149
  %151 = load i32, i32* %150, align 4
  %152 = load i32, i32* %7, align 4
  %153 = icmp eq i32 %151, %152
  br i1 %153, label %154, label %160

154:                                              ; preds = %147
  %155 = load i32, i32* %3, align 4
  %156 = sext i32 %155 to i64
  %157 = getelementptr inbounds [500 x [10 x i8]], [500 x [10 x i8]]* %11, i64 0, i64 %156
  %158 = getelementptr inbounds [10 x i8], [10 x i8]* %157, i64 0, i64 0
  %159 = call i32 (i8*, ...) @printf(i8* getelementptr inbounds ([4 x i8], [4 x i8]* @.str.4, i64 0, i64 0), i8* %158)
  br label %160

160:                                              ; preds = %154, %147
  br label %161

161:                                              ; preds = %160
  %162 = load i32, i32* %3, align 4
  %163 = add nsw i32 %162, 1
  store i32 %163, i32* %3, align 4
  br label %144

164:                                              ; preds = %144
  store i32 0, i32* %1, align 4
  br label %165

165:                                              ; preds = %164, %139
  %166 = load i32, i32* %1, align 4
  ret i32 %166
}

; Function Attrs: argmemonly nounwind willreturn
declare void @llvm.memset.p0i8.i64(i8* nocapture writeonly, i8, i64, i1 immarg) #1

declare dso_local i32 @__isoc99_scanf(i8*, ...) #2

; Function Attrs: nounwind readonly
declare dso_local i64 @strlen(i8*) #3

; Function Attrs: nounwind readonly
declare dso_local i32 @strcmp(i8*, i8*) #3

; Function Attrs: nounwind
declare dso_local i8* @strcpy(i8*, i8*) #4

declare dso_local i32 @printf(i8*, ...) #2


!llvm.module.flags = !{!0}
!llvm.ident = !{!1}

!0 = !{i32 1, !"wchar_size", i32 4}
!1 = !{!"clang version 10.0.0-4ubuntu1 "}
